target datalayout = "e-m:e-p270:32:32-p271:32:32-p272:64:64-i64:64-i128:128-f80:128-n8:16:32:64-S128"
target triple = "x86_64-pc-linux-gnu"

; Function Attrs: nounwind uwtable
define dso_local i32 @bit_set_count(ptr noundef %0) #0 {
  %2 = alloca ptr, align 8
  %3 = alloca i32, align 4
  %4 = alloca i64, align 8
  %5 = alloca i64, align 8
  %6 = alloca i64, align 8
  store ptr %0, ptr %2, align 8
  call void @llvm.lifetime.start.p0(i64 4, ptr %3) #12
  store i32 0, ptr %3, align 4
  call void @llvm.lifetime.start.p0(i64 8, ptr %4) #12
  call void @llvm.lifetime.start.p0(i64 8, ptr %5) #12
  br label %7

7:                                                ; preds = %1
  br label %8

8:                                                ; preds = %7
  br label %9

9:                                                ; preds = %8
  %10 = load ptr, ptr %2, align 8
  %11 = getelementptr inbounds i64, ptr %10, i64 1
  %12 = load i64, ptr %11, align 8
  store i64 %12, ptr %5, align 8
  store i64 0, ptr %4, align 8
  br label %13

13:                                               ; preds = %29, %9
  %14 = load i64, ptr %4, align 8
  %15 = add i64 %14, 64
  %16 = load i64, ptr %5, align 8
  %17 = icmp ule i64 %15, %16
  br i1 %17, label %18, label %32

18:                                               ; preds = %13
  %19 = load ptr, ptr %2, align 8
  %20 = load i64, ptr %4, align 8
  %21 = ashr i64 %20, 6
  %22 = add nsw i64 %21, 2
  %23 = getelementptr inbounds i64, ptr %19, i64 %22
  %24 = load i64, ptr %23, align 8
  %25 = call i64 @llvm.ctpop.i64(i64 %24)
  %26 = trunc i64 %25 to i32
  %27 = load i32, ptr %3, align 4
  %28 = add nsw i32 %27, %26
  store i32 %28, ptr %3, align 4
  br label %29

29:                                               ; preds = %18
  %30 = load i64, ptr %4, align 8
  %31 = add i64 %30, 64
  store i64 %31, ptr %4, align 8
  br label %13, !llvm.loop !19

32:                                               ; preds = %13
  %33 = load i64, ptr %4, align 8
  %34 = load i64, ptr %5, align 8
  %35 = icmp slt i64 %33, %34
  br i1 %35, label %36, label %53

36:                                               ; preds = %32
  call void @llvm.lifetime.start.p0(i64 8, ptr %6) #12
  %37 = load i64, ptr %5, align 8
  %38 = and i64 %37, 63
  %39 = shl i64 1, %38
  %40 = sub nsw i64 %39, 1
  store i64 %40, ptr %6, align 8
  %41 = load ptr, ptr %2, align 8
  %42 = load i64, ptr %4, align 8
  %43 = ashr i64 %42, 6
  %44 = add nsw i64 %43, 2
  %45 = getelementptr inbounds i64, ptr %41, i64 %44
  %46 = load i64, ptr %45, align 8
  %47 = load i64, ptr %6, align 8
  %48 = and i64 %46, %47
  %49 = call i64 @llvm.ctpop.i64(i64 %48)
  %50 = trunc i64 %49 to i32
  %51 = load i32, ptr %3, align 4
  %52 = add nsw i32 %51, %50
  store i32 %52, ptr %3, align 4
  call void @llvm.lifetime.end.p0(i64 8, ptr %6) #12
  br label %53

53:                                               ; preds = %36, %32
  %54 = load i32, ptr %3, align 4
  call void @llvm.lifetime.end.p0(i64 8, ptr %5) #12
  call void @llvm.lifetime.end.p0(i64 8, ptr %4) #12
  call void @llvm.lifetime.end.p0(i64 4, ptr %3) #12
  ret i32 %54
}