; Function Attrs: nofree norecurse nosync nounwind memory(argmem: read) uwtable
define dso_local i32 @bit_set_count(ptr noundef readonly captures(none) %0) #3 {
  %2 = getelementptr inbounds nuw i8, ptr %0, i64 8
  %3 = load i64, ptr %2, align 8
  %invariant.gep = getelementptr i8, ptr %0, i64 16
  %.not17 = icmp ult i64 %3, 64
  br i1 %.not17, label %._crit_edge, label %.lr.ph

.lr.ph:                                           ; preds = %1, %.lr.ph
  %4 = phi i64 [ %10, %.lr.ph ], [ 64, %1 ]
  %.019 = phi i32 [ %9, %.lr.ph ], [ 0, %1 ]
  %.01418 = phi i64 [ %4, %.lr.ph ], [ 0, %1 ]
  %5 = ashr exact i64 %.01418, 3
  %gep = getelementptr i8, ptr %invariant.gep, i64 %5
  %6 = load i64, ptr %gep, align 8
  %7 = tail call range(i64 0, 65) i64 @llvm.ctpop.i64(i64 %6)
  %8 = trunc nuw nsw i64 %7 to i32
  %9 = add nuw nsw i32 %.019, %8
  %10 = add i64 %4, 64
  %.not = icmp ugt i64 %10, %3
  br i1 %.not, label %._crit_edge, label %.lr.ph, !llvm.loop !20

._crit_edge:                                      ; preds = %.lr.ph, %1
  %.014.lcssa = phi i64 [ 0, %1 ], [ %4, %.lr.ph ]
  %.0.lcssa = phi i32 [ 0, %1 ], [ %9, %.lr.ph ]
  %11 = icmp slt i64 %.014.lcssa, %3
  br i1 %11, label %12, label %23

12:                                               ; preds = %._crit_edge
  %13 = and i64 %3, 63
  %notmask = shl nsw i64 -1, %13
  %14 = xor i64 %notmask, -1
  %15 = ashr exact i64 %.014.lcssa, 3
  %16 = getelementptr i8, ptr %0, i64 %15
  %17 = getelementptr i8, ptr %16, i64 16
  %18 = load i64, ptr %17, align 8
  %19 = and i64 %18, %14
  %20 = tail call range(i64 0, 64) i64 @llvm.ctpop.i64(i64 %19)
  %21 = trunc nuw nsw i64 %20 to i32
  %22 = add nuw nsw i32 %.0.lcssa, %21
  br label %23

23:                                               ; preds = %12, %._crit_edge
  %.1 = phi i32 [ %22, %12 ], [ %.0.lcssa, %._crit_edge ]
  ret i32 %.1
}